target datalayout = "e-m:e-p270:32:32-p271:32:32-p272:64:64-i64:64-i128:128-f80:128-n8:16:32:64-S128"
target triple = "x86_64-pc-linux-gnu"

%struct.quic_conn_st = type { %struct.quic_obj_st, ptr, ptr, ptr, ptr, ptr, ptr, ptr, ptr, %union.bio_addr_st, %struct.quic_thread_assist_st, i64, i16, i32, i32, i64, i32, i64, i32 }
%struct.quic_obj_st = type { %struct.ssl_st, ptr, ptr, ptr, ptr, ptr, i64, i8 }
%struct.ssl_st = type { i32, ptr, ptr, ptr, %struct.CRYPTO_REF_COUNT, ptr, %struct.crypto_ex_data_st }
%struct.CRYPTO_REF_COUNT = type { i32 }
%struct.crypto_ex_data_st = type { ptr, ptr }
%union.bio_addr_st = type { %struct.sockaddr_in6, [84 x i8] }
%struct.sockaddr_in6 = type { i16, i16, i32, %struct.in6_addr, i32 }
%struct.in6_addr = type { %union.anon }
%union.anon = type { [4 x i32] }
%struct.quic_thread_assist_st = type { ptr, ptr, ptr, i32, i32 }
%struct.qctx_st = type { ptr, ptr, ptr, ptr, ptr, i32, i32, i32, i32 }
%struct.quic_xso_st = type { %struct.quic_obj_st, ptr, ptr, i8, ptr, i64, i64, i32, i64, i32 }

; Function Attrs: inlinehint nounwind uwtable
define internal ptr @ossl_quic_obj_get0_engine(ptr noundef %0) #3 {
  %2 = alloca ptr, align 8
  store ptr %0, ptr %2, align 8, !tbaa !172
  %3 = load ptr, ptr %2, align 8, !tbaa !172
  %4 = getelementptr inbounds nuw %struct.quic_obj_st, ptr %3, i32 0, i32 4
  %5 = load ptr, ptr %4, align 8, !tbaa !168
  ret ptr %5
}

; Function Attrs: inlinehint nounwind uwtable
define internal ptr @ossl_quic_obj_get0_mutex(ptr noundef %0) #3 {
  %2 = alloca ptr, align 8
  store ptr %0, ptr %2, align 8, !tbaa !172
  %3 = load ptr, ptr %2, align 8, !tbaa !172
  %4 = call ptr @ossl_quic_obj_get0_engine(ptr noundef %3)
  %5 = call ptr @ossl_quic_engine_get0_mutex(ptr noundef %4)
  ret ptr %5
}

; Function Attrs: nounwind uwtable
define internal void @qctx_unlock(ptr noundef %0) #0 {
  %2 = alloca ptr, align 8
  store ptr %0, ptr %2, align 8, !tbaa !119
  %3 = load ptr, ptr %2, align 8, !tbaa !119
  %4 = getelementptr inbounds nuw %struct.qctx_st, ptr %3, i32 0, i32 0
  %5 = load ptr, ptr %4, align 8, !tbaa !166
  %6 = call ptr @ossl_quic_obj_get0_mutex(ptr noundef %5)
  call void @ossl_crypto_mutex_unlock(ptr noundef %6)
  ret void
}

; Function Attrs: nounwind uwtable
define internal void @qctx_lock(ptr noundef %0) #0 {
  %2 = alloca ptr, align 8
  store ptr %0, ptr %2, align 8, !tbaa !119
  %3 = load ptr, ptr %2, align 8, !tbaa !119
  %4 = getelementptr inbounds nuw %struct.qctx_st, ptr %3, i32 0, i32 0
  %5 = load ptr, ptr %4, align 8, !tbaa !166
  %6 = call ptr @ossl_quic_obj_get0_mutex(ptr noundef %5)
  call void @ossl_crypto_mutex_lock(ptr noundef %6)
  ret void
}

; Function Attrs: nounwind uwtable
define internal i32 @expect_quic_cs(ptr noundef %0, ptr noundef %1) #0 {
  %3 = alloca ptr, align 8
  %4 = alloca ptr, align 8
  store ptr %0, ptr %3, align 8, !tbaa !136
  store ptr %1, ptr %4, align 8, !tbaa !119
  %5 = load ptr, ptr %3, align 8, !tbaa !136
  %6 = load ptr, ptr %4, align 8, !tbaa !119
  %7 = call i32 @expect_quic_as(ptr noundef %5, ptr noundef %6, i32 noundef 3)
  ret i32 %7
}

; Function Attrs: nounwind uwtable
define i32 @ossl_quic_get_error(ptr noundef %0, i32 noundef %1) #0 {
  %3 = alloca i32, align 4
  %4 = alloca ptr, align 8
  %5 = alloca i32, align 4
  %6 = alloca %struct.qctx_st, align 8
  %7 = alloca i32, align 4
  %8 = alloca i32, align 4
  %9 = alloca i32, align 4
  store ptr %0, ptr %4, align 8, !tbaa !136
  store i32 %1, ptr %5, align 4, !tbaa !122
  call void @llvm.lifetime.start.p0(i64 56, ptr %6) #10
  call void @llvm.lifetime.start.p0(i64 4, ptr %7) #10
  call void @llvm.lifetime.start.p0(i64 4, ptr %8) #10
  %10 = load ptr, ptr %4, align 8, !tbaa !136
  %11 = call i32 @expect_quic_cs(ptr noundef %10, ptr noundef %6)
  %12 = icmp ne i32 %11, 0
  br i1 %12, label %14, label %13

13:                                               ; preds = %2
  store i32 0, ptr %3, align 4
  store i32 1, ptr %9, align 4
  br label %40

14:                                               ; preds = %2
  call void @qctx_lock(ptr noundef %6)
  %15 = getelementptr inbounds nuw %struct.qctx_st, ptr %6, i32 0, i32 3
  %16 = load ptr, ptr %15, align 8, !tbaa !123
  %17 = getelementptr inbounds nuw %struct.quic_conn_st, ptr %16, i32 0, i32 6
  %18 = load ptr, ptr %17, align 8, !tbaa !106
  %19 = call i32 @ossl_quic_channel_net_error(ptr noundef %18)
  store i32 %19, ptr %7, align 4, !tbaa !122
  %20 = getelementptr inbounds nuw %struct.qctx_st, ptr %6, i32 0, i32 5
  %21 = load i32, ptr %20, align 8, !tbaa !139
  %22 = icmp ne i32 %21, 0
  br i1 %22, label %23, label %28

23:                                               ; preds = %14
  %24 = getelementptr inbounds nuw %struct.qctx_st, ptr %6, i32 0, i32 4
  %25 = load ptr, ptr %24, align 8, !tbaa !141
  %26 = getelementptr inbounds nuw %struct.quic_xso_st, ptr %25, i32 0, i32 9
  %27 = load i32, ptr %26, align 8, !tbaa !208
  br label %33

28:                                               ; preds = %14
  %29 = getelementptr inbounds nuw %struct.qctx_st, ptr %6, i32 0, i32 3
  %30 = load ptr, ptr %29, align 8, !tbaa !123
  %31 = getelementptr inbounds nuw %struct.quic_conn_st, ptr %30, i32 0, i32 18
  %32 = load i32, ptr %31, align 8, !tbaa !118
  br label %33

33:                                               ; preds = %28, %23
  %34 = phi i32 [ %27, %23 ], [ %32, %28 ]
  store i32 %34, ptr %8, align 4, !tbaa !122
  call void @qctx_unlock(ptr noundef %6)
  %35 = load i32, ptr %7, align 4, !tbaa !122
  %36 = icmp ne i32 %35, 0
  br i1 %36, label %37, label %38

37:                                               ; preds = %33
  store i32 5, ptr %3, align 4
  store i32 1, ptr %9, align 4
  br label %40

38:                                               ; preds = %33
  %39 = load i32, ptr %8, align 4, !tbaa !122
  store i32 %39, ptr %3, align 4
  store i32 1, ptr %9, align 4
  br label %40

40:                                               ; preds = %38, %37, %13
  call void @llvm.lifetime.end.p0(i64 4, ptr %8) #10
  call void @llvm.lifetime.end.p0(i64 4, ptr %7) #10
  call void @llvm.lifetime.end.p0(i64 56, ptr %6) #10
  %41 = load i32, ptr %3, align 4
  ret i32 %41
}