; Function Attrs: nounwind uwtable
define i32 @ossl_quic_get_error(ptr noundef %0, i32 noundef %1) local_unnamed_addr #0 {
  %3 = alloca %struct.qctx_st, align 8
  call void @llvm.lifetime.start.p0(i64 56, ptr nonnull %3) #12
  %4 = call fastcc range(i32 0, 2) i32 @expect_quic_as(ptr noundef %0, ptr noundef nonnull %3, i32 noundef 3)
  %.not = icmp eq i32 %4, 0
  br i1 %.not, label %23, label %5

5:                                                ; preds = %2
  %.val = load ptr, ptr %3, align 8, !tbaa !157
  %6 = getelementptr i8, ptr %.val, i64 88
  %.val.val = load ptr, ptr %6, align 8, !tbaa !143
  %7 = call ptr @ossl_quic_engine_get0_mutex(ptr noundef %.val.val) #12
  call void @ossl_crypto_mutex_lock(ptr noundef %7) #12
  %8 = getelementptr inbounds nuw i8, ptr %3, i64 24
  %9 = load ptr, ptr %8, align 8, !tbaa !134
  %10 = getelementptr inbounds nuw i8, ptr %9, i64 160
  %11 = load ptr, ptr %10, align 8, !tbaa !113
  %12 = call i32 @ossl_quic_channel_net_error(ptr noundef %11) #12
  %13 = getelementptr inbounds nuw i8, ptr %3, i64 40
  %14 = load i32, ptr %13, align 8, !tbaa !129
  %.not3 = icmp eq i32 %14, 0
  %15 = getelementptr inbounds nuw i8, ptr %3, i64 32
  %16 = load ptr, ptr %15, align 8
  %17 = getelementptr inbounds nuw i8, ptr %16, i64 184
  %18 = load ptr, ptr %8, align 8
  %19 = getelementptr inbounds nuw i8, ptr %18, i64 376
  %.in = select i1 %.not3, ptr %19, ptr %17
  %20 = load i32, ptr %.in, align 8, !tbaa !166
  %.val5 = load ptr, ptr %3, align 8, !tbaa !157
  %21 = getelementptr i8, ptr %.val5, i64 88
  %.val5.val = load ptr, ptr %21, align 8, !tbaa !143
  %22 = call ptr @ossl_quic_engine_get0_mutex(ptr noundef %.val5.val) #12
  call void @ossl_crypto_mutex_unlock(ptr noundef %22) #12
  %.not4 = icmp eq i32 %12, 0
  %spec.select = select i1 %.not4, i32 %20, i32 5
  br label %23

23:                                               ; preds = %5, %2
  %.0 = phi i32 [ 0, %2 ], [ %spec.select, %5 ]
  call void @llvm.lifetime.end.p0(i64 56, ptr nonnull %3) #12
  ret i32 %.0
}